target datalayout = "e-m:e-p270:32:32-p271:32:32-p272:64:64-i64:64-i128:128-f80:128-n8:16:32:64-S128"
target triple = "x86_64-pc-linux-gnu"

%struct._zval_struct = type { %union._zend_value, %union.anon.3, %union.anon.6 }
%union._zend_value = type { i64 }
%union.anon.3 = type { i32 }
%union.anon.6 = type { i32 }
%struct._zend_array = type { %struct._zend_refcounted_h, %union.anon.0, i32, %union.anon.1, i32, i32, i32, i32, i64, ptr }
%struct._zend_refcounted_h = type { i32, %union.anon }
%union.anon = type { i32 }
%union.anon.0 = type { i32 }
%union.anon.1 = type { ptr }
%struct._spl_SplObjectStorage = type { %struct._zend_array, i64, i32, i64, ptr, %struct._zend_object }
%struct._zend_object = type { %struct._zend_refcounted_h, i32, ptr, ptr, ptr, [1 x %struct._zval_struct] }

; Function Attrs: nounwind uwtable
define internal ptr @spl_object_storage_from_obj(ptr noundef %0) #0 {
  %2 = alloca ptr, align 8
  store ptr %0, ptr %2, align 8
  %3 = load ptr, ptr %2, align 8
  %4 = getelementptr inbounds i8, ptr %3, i64 -88
  ret ptr %4
}

; Function Attrs: nounwind uwtable
define internal void @spl_object_storage_unset_dimension(ptr noundef %0, ptr noundef %1) #0 {
  %3 = alloca ptr, align 8
  %4 = alloca ptr, align 8
  %5 = alloca ptr, align 8
  %6 = alloca ptr, align 8
  store ptr %0, ptr %4, align 8
  store ptr %1, ptr %5, align 8
  %7 = load ptr, ptr %4, align 8
  %8 = call ptr @spl_object_storage_from_obj(ptr noundef %7)
  store ptr %8, ptr %6, align 8
  %9 = load ptr, ptr %5, align 8
  store ptr %9, ptr %3, align 8
  %10 = load ptr, ptr %3, align 8
  %11 = getelementptr inbounds %struct._zval_struct, ptr %10, i32 0, i32 1
  %12 = load i8, ptr %11, align 8
  %13 = zext i8 %12 to i32
  %14 = icmp ne i32 %13, 8
  br i1 %14, label %21, label %15

15:                                               ; preds = %2
  %16 = load ptr, ptr %6, align 8
  %17 = getelementptr inbounds %struct._spl_SplObjectStorage, ptr %16, i32 0, i32 3
  %18 = load i64, ptr %17, align 8
  %19 = and i64 %18, 4
  %20 = icmp ne i64 %19, 0
  br label %21

21:                                               ; preds = %15, %2
  %22 = phi i1 [ true, %2 ], [ %20, %15 ]
  %23 = xor i1 %22, true
  %24 = xor i1 %23, true
  %25 = zext i1 %24 to i32
  %26 = sext i32 %25 to i64
  %27 = icmp ne i64 %26, 0
  br i1 %27, label %28, label %31

28:                                               ; preds = %21
  %29 = load ptr, ptr %4, align 8
  %30 = load ptr, ptr %5, align 8
  call void @zend_std_unset_dimension(ptr noundef %29, ptr noundef %30)
  br label %41

31:                                               ; preds = %21
  %32 = load ptr, ptr %6, align 8
  %33 = getelementptr inbounds %struct._spl_SplObjectStorage, ptr %32, i32 0, i32 0
  %34 = load ptr, ptr %5, align 8
  %35 = getelementptr inbounds %struct._zval_struct, ptr %34, i32 0, i32 0
  %36 = load ptr, ptr %35, align 8
  %37 = getelementptr inbounds %struct._zend_object, ptr %36, i32 0, i32 1
  %38 = load i32, ptr %37, align 8
  %39 = zext i32 %38 to i64
  %40 = call i32 @zend_hash_index_del(ptr noundef %33, i64 noundef %39)
  br label %41

41:                                               ; preds = %31, %28
  ret void
}