; Function Attrs: nounwind uwtable
define internal void @spl_object_storage_unset_dimension(ptr noundef %0, ptr noundef %1) #0 {
  %3 = getelementptr inbounds i8, ptr %0, i64 -88
  %4 = getelementptr inbounds i8, ptr %1, i64 8
  %5 = load i8, ptr %4, align 8
  %.not = icmp eq i8 %5, 8
  br i1 %.not, label %6, label %.critedge

6:                                                ; preds = %2
  %7 = getelementptr inbounds i8, ptr %0, i64 -16
  %8 = load i64, ptr %7, align 8
  %9 = and i64 %8, 4
  %.not8 = icmp eq i64 %9, 0
  br i1 %.not8, label %10, label %.critedge

.critedge:                                        ; preds = %2, %6
  tail call void @zend_std_unset_dimension(ptr noundef %0, ptr noundef nonnull %1) #10
  br label %16

10:                                               ; preds = %6
  %11 = load ptr, ptr %1, align 8
  %12 = getelementptr inbounds i8, ptr %11, i64 8
  %13 = load i32, ptr %12, align 8
  %14 = zext i32 %13 to i64
  %15 = tail call i32 @zend_hash_index_del(ptr noundef nonnull %3, i64 noundef %14) #10
  br label %16

16:                                               ; preds = %10, %.critedge
  ret void
}